target datalayout = "e-m:e-p270:32:32-p271:32:32-p272:64:64-i64:64-i128:128-f80:128-n8:16:32:64-S128"
target triple = "x86_64-pc-linux-gnu"

%"class.open3d::core::SmallVectorBase" = type { ptr, i32, i32 }
%"class.open3d::utility::optional" = type { %"struct.open3d::utility::constexpr_optional_base" }
%"struct.open3d::utility::constexpr_optional_base" = type { i8, %"union.open3d::utility::constexpr_storage_t" }
%"union.open3d::utility::constexpr_storage_t" = type { i64 }
%"struct.__gnu_cxx::__ops::_Iter_pred" = type { i8 }

; Function Attrs: mustprogress nounwind ssp uwtable
define linkonce_odr noundef zeroext i1 @_ZNK6open3d7utility8optionalIlE11initializedEv(ptr noundef nonnull align 8 dereferenceable(16) %0) #2 comdat align 2 {
  %2 = alloca ptr, align 8
  store ptr %0, ptr %2, align 8, !tbaa !12
  %3 = load ptr, ptr %2, align 8
  %4 = getelementptr inbounds nuw %"struct.open3d::utility::constexpr_optional_base", ptr %3, i32 0, i32 0
  %5 = load i8, ptr %4, align 8, !tbaa !50, !range !54, !noundef !55
  %6 = trunc i8 %5 to i1
  ret i1 %6
}

; Function Attrs: mustprogress nounwind ssp uwtable
define linkonce_odr noundef zeroext i1 @_ZNK6open3d7utility8optionalIlE9has_valueEv(ptr noundef nonnull align 8 dereferenceable(16) %0) #2 comdat align 2 {
  %2 = alloca ptr, align 8
  store ptr %0, ptr %2, align 8, !tbaa !12
  %3 = load ptr, ptr %2, align 8
  %4 = call noundef zeroext i1 @_ZNK6open3d7utility8optionalIlE11initializedEv(ptr noundef nonnull align 8 dereferenceable(16) %3) #25
  ret i1 %4
}

; Function Attrs: inlinehint mustprogress nounwind ssp uwtable
define internal noundef zeroext i1 @"_ZZNK6open3d4core17DynamicSizeVector9IsDynamicEvENK3$_0clERKNS_7utility8optionalIlEE"(ptr noundef nonnull align 1 dereferenceable(1) %0, ptr noundef nonnull align 8 dereferenceable(16) %1) #8 align 2 {
  %3 = alloca ptr, align 8
  %4 = alloca ptr, align 8
  store ptr %0, ptr %3, align 8, !tbaa !28
  store ptr %1, ptr %4, align 8, !tbaa !12
  %5 = load ptr, ptr %4, align 8, !tbaa !12
  %6 = call noundef zeroext i1 @_ZNK6open3d7utility8optionalIlE9has_valueEv(ptr noundef nonnull align 8 dereferenceable(16) %5) #25
  %7 = xor i1 %6, true
  ret i1 %7
}

; Function Attrs: mustprogress ssp uwtable
define internal noundef zeroext i1 @"_ZN9__gnu_cxx5__ops10_Iter_predIZNK6open3d4core17DynamicSizeVector9IsDynamicEvE3$_0EclIPKNS2_7utility8optionalIlEEEEbT_"(ptr noundef nonnull align 1 dereferenceable(1) %0, ptr noundef %1) #0 align 2 {
  %3 = alloca ptr, align 8
  %4 = alloca ptr, align 8
  store ptr %0, ptr %3, align 8, !tbaa !838
  store ptr %1, ptr %4, align 8, !tbaa !12
  %5 = load ptr, ptr %3, align 8
  %6 = load ptr, ptr %4, align 8, !tbaa !12
  %7 = call noundef zeroext i1 @"_ZZNK6open3d4core17DynamicSizeVector9IsDynamicEvENK3$_0clERKNS_7utility8optionalIlEE"(ptr noundef nonnull align 1 dereferenceable(1) %5, ptr noundef nonnull align 8 dereferenceable(16) %6)
  ret i1 %7
}

; Function Attrs: mustprogress ssp uwtable
define internal noundef ptr @"_ZSt9__find_ifIPKN6open3d7utility8optionalIlEEN9__gnu_cxx5__ops10_Iter_predIZNKS0_4core17DynamicSizeVector9IsDynamicEvE3$_0EEET_SD_SD_T0_St26random_access_iterator_tag"(ptr noundef %0, ptr noundef %1) #0 {
  %3 = alloca ptr, align 8
  %4 = alloca %"struct.__gnu_cxx::__ops::_Iter_pred", align 1
  %5 = alloca ptr, align 8
  %6 = alloca ptr, align 8
  %7 = alloca i64, align 8
  %8 = alloca i32, align 4
  store ptr %0, ptr %5, align 8, !tbaa !12
  store ptr %1, ptr %6, align 8, !tbaa !12
  call void @llvm.lifetime.start.p0(i64 8, ptr %7) #25
  %9 = load ptr, ptr %6, align 8, !tbaa !12
  %10 = load ptr, ptr %5, align 8, !tbaa !12
  %11 = ptrtoint ptr %9 to i64
  %12 = ptrtoint ptr %10 to i64
  %13 = sub i64 %11, %12
  %14 = sdiv exact i64 %13, 16
  %15 = ashr i64 %14, 2
  store i64 %15, ptr %7, align 8, !tbaa !14
  br label %16

16:                                               ; preds = %48, %2
  %17 = load i64, ptr %7, align 8, !tbaa !14
  %18 = icmp sgt i64 %17, 0
  br i1 %18, label %19, label %51

19:                                               ; preds = %16
  %20 = load ptr, ptr %5, align 8, !tbaa !12
  %21 = call noundef zeroext i1 @"_ZN9__gnu_cxx5__ops10_Iter_predIZNK6open3d4core17DynamicSizeVector9IsDynamicEvE3$_0EclIPKNS2_7utility8optionalIlEEEEbT_"(ptr noundef nonnull align 1 dereferenceable(1) %4, ptr noundef %20)
  br i1 %21, label %22, label %24

22:                                               ; preds = %19
  %23 = load ptr, ptr %5, align 8, !tbaa !12
  store ptr %23, ptr %3, align 8
  store i32 1, ptr %8, align 4
  br label %85

24:                                               ; preds = %19
  %25 = load ptr, ptr %5, align 8, !tbaa !12
  %26 = getelementptr inbounds nuw %"class.open3d::utility::optional", ptr %25, i32 1
  store ptr %26, ptr %5, align 8, !tbaa !12
  %27 = load ptr, ptr %5, align 8, !tbaa !12
  %28 = call noundef zeroext i1 @"_ZN9__gnu_cxx5__ops10_Iter_predIZNK6open3d4core17DynamicSizeVector9IsDynamicEvE3$_0EclIPKNS2_7utility8optionalIlEEEEbT_"(ptr noundef nonnull align 1 dereferenceable(1) %4, ptr noundef %27)
  br i1 %28, label %29, label %31

29:                                               ; preds = %24
  %30 = load ptr, ptr %5, align 8, !tbaa !12
  store ptr %30, ptr %3, align 8
  store i32 1, ptr %8, align 4
  br label %85

31:                                               ; preds = %24
  %32 = load ptr, ptr %5, align 8, !tbaa !12
  %33 = getelementptr inbounds nuw %"class.open3d::utility::optional", ptr %32, i32 1
  store ptr %33, ptr %5, align 8, !tbaa !12
  %34 = load ptr, ptr %5, align 8, !tbaa !12
  %35 = call noundef zeroext i1 @"_ZN9__gnu_cxx5__ops10_Iter_predIZNK6open3d4core17DynamicSizeVector9IsDynamicEvE3$_0EclIPKNS2_7utility8optionalIlEEEEbT_"(ptr noundef nonnull align 1 dereferenceable(1) %4, ptr noundef %34)
  br i1 %35, label %36, label %38

36:                                               ; preds = %31
  %37 = load ptr, ptr %5, align 8, !tbaa !12
  store ptr %37, ptr %3, align 8
  store i32 1, ptr %8, align 4
  br label %85

38:                                               ; preds = %31
  %39 = load ptr, ptr %5, align 8, !tbaa !12
  %40 = getelementptr inbounds nuw %"class.open3d::utility::optional", ptr %39, i32 1
  store ptr %40, ptr %5, align 8, !tbaa !12
  %41 = load ptr, ptr %5, align 8, !tbaa !12
  %42 = call noundef zeroext i1 @"_ZN9__gnu_cxx5__ops10_Iter_predIZNK6open3d4core17DynamicSizeVector9IsDynamicEvE3$_0EclIPKNS2_7utility8optionalIlEEEEbT_"(ptr noundef nonnull align 1 dereferenceable(1) %4, ptr noundef %41)
  br i1 %42, label %43, label %45

43:                                               ; preds = %38
  %44 = load ptr, ptr %5, align 8, !tbaa !12
  store ptr %44, ptr %3, align 8
  store i32 1, ptr %8, align 4
  br label %85

45:                                               ; preds = %38
  %46 = load ptr, ptr %5, align 8, !tbaa !12
  %47 = getelementptr inbounds nuw %"class.open3d::utility::optional", ptr %46, i32 1
  store ptr %47, ptr %5, align 8, !tbaa !12
  br label %48

48:                                               ; preds = %45
  %49 = load i64, ptr %7, align 8, !tbaa !14
  %50 = add nsw i64 %49, -1
  store i64 %50, ptr %7, align 8, !tbaa !14
  br label %16, !llvm.loop !837

51:                                               ; preds = %16
  %52 = load ptr, ptr %6, align 8, !tbaa !12
  %53 = load ptr, ptr %5, align 8, !tbaa !12
  %54 = ptrtoint ptr %52 to i64
  %55 = ptrtoint ptr %53 to i64
  %56 = sub i64 %54, %55
  %57 = sdiv exact i64 %56, 16
  switch i64 %57, label %83 [
    i64 3, label %58
    i64 2, label %66
    i64 1, label %74
    i64 0, label %82
  ]

58:                                               ; preds = %51
  %59 = load ptr, ptr %5, align 8, !tbaa !12
  %60 = call noundef zeroext i1 @"_ZN9__gnu_cxx5__ops10_Iter_predIZNK6open3d4core17DynamicSizeVector9IsDynamicEvE3$_0EclIPKNS2_7utility8optionalIlEEEEbT_"(ptr noundef nonnull align 1 dereferenceable(1) %4, ptr noundef %59)
  br i1 %60, label %61, label %63

61:                                               ; preds = %58
  %62 = load ptr, ptr %5, align 8, !tbaa !12
  store ptr %62, ptr %3, align 8
  store i32 1, ptr %8, align 4
  br label %85

63:                                               ; preds = %58
  %64 = load ptr, ptr %5, align 8, !tbaa !12
  %65 = getelementptr inbounds nuw %"class.open3d::utility::optional", ptr %64, i32 1
  store ptr %65, ptr %5, align 8, !tbaa !12
  br label %66

66:                                               ; preds = %51, %63
  %67 = load ptr, ptr %5, align 8, !tbaa !12
  %68 = call noundef zeroext i1 @"_ZN9__gnu_cxx5__ops10_Iter_predIZNK6open3d4core17DynamicSizeVector9IsDynamicEvE3$_0EclIPKNS2_7utility8optionalIlEEEEbT_"(ptr noundef nonnull align 1 dereferenceable(1) %4, ptr noundef %67)
  br i1 %68, label %69, label %71

69:                                               ; preds = %66
  %70 = load ptr, ptr %5, align 8, !tbaa !12
  store ptr %70, ptr %3, align 8
  store i32 1, ptr %8, align 4
  br label %85

71:                                               ; preds = %66
  %72 = load ptr, ptr %5, align 8, !tbaa !12
  %73 = getelementptr inbounds nuw %"class.open3d::utility::optional", ptr %72, i32 1
  store ptr %73, ptr %5, align 8, !tbaa !12
  br label %74

74:                                               ; preds = %51, %71
  %75 = load ptr, ptr %5, align 8, !tbaa !12
  %76 = call noundef zeroext i1 @"_ZN9__gnu_cxx5__ops10_Iter_predIZNK6open3d4core17DynamicSizeVector9IsDynamicEvE3$_0EclIPKNS2_7utility8optionalIlEEEEbT_"(ptr noundef nonnull align 1 dereferenceable(1) %4, ptr noundef %75)
  br i1 %76, label %77, label %79

77:                                               ; preds = %74
  %78 = load ptr, ptr %5, align 8, !tbaa !12
  store ptr %78, ptr %3, align 8
  store i32 1, ptr %8, align 4
  br label %85

79:                                               ; preds = %74
  %80 = load ptr, ptr %5, align 8, !tbaa !12
  %81 = getelementptr inbounds nuw %"class.open3d::utility::optional", ptr %80, i32 1
  store ptr %81, ptr %5, align 8, !tbaa !12
  br label %82

82:                                               ; preds = %51, %79
  br label %83

83:                                               ; preds = %51, %82
  %84 = load ptr, ptr %6, align 8, !tbaa !12
  store ptr %84, ptr %3, align 8
  store i32 1, ptr %8, align 4
  br label %85

85:                                               ; preds = %83, %77, %69, %61, %43, %36, %29, %22
  call void @llvm.lifetime.end.p0(i64 8, ptr %7) #25
  %86 = load ptr, ptr %3, align 8
  ret ptr %86
}

; Function Attrs: alwaysinline mustprogress nounwind ssp uwtable
define linkonce_odr void @_ZSt19__iterator_categoryIPKN6open3d7utility8optionalIlEEENSt15iterator_traitsIT_E17iterator_categoryERKS7_(ptr noundef nonnull align 8 dereferenceable(8) %0) #5 comdat {
  %2 = alloca ptr, align 8
  store ptr %0, ptr %2, align 8, !tbaa !37
  ret void
}

; Function Attrs: mustprogress nounwind ssp uwtable
define internal void @"_ZN9__gnu_cxx5__ops10_Iter_predIZNK6open3d4core17DynamicSizeVector9IsDynamicEvE3$_0EC2ES5_"(ptr noundef nonnull align 1 dereferenceable(1) %0) unnamed_addr #2 align 2 {
  %2 = alloca ptr, align 8
  store ptr %0, ptr %2, align 8, !tbaa !838
  ret void
}

; Function Attrs: inlinehint mustprogress ssp uwtable
define internal noundef ptr @"_ZSt9__find_ifIPKN6open3d7utility8optionalIlEEN9__gnu_cxx5__ops10_Iter_predIZNKS0_4core17DynamicSizeVector9IsDynamicEvE3$_0EEET_SD_SD_T0_"(ptr noundef %0, ptr noundef %1) #7 {
  %3 = alloca %"struct.__gnu_cxx::__ops::_Iter_pred", align 1
  %4 = alloca ptr, align 8
  %5 = alloca ptr, align 8
  %6 = alloca %"struct.__gnu_cxx::__ops::_Iter_pred", align 1
  store ptr %0, ptr %4, align 8, !tbaa !12
  store ptr %1, ptr %5, align 8, !tbaa !12
  %7 = load ptr, ptr %4, align 8, !tbaa !12
  %8 = load ptr, ptr %5, align 8, !tbaa !12
  call void @llvm.memcpy.p0.p0.i64(ptr align 1 %6, ptr align 1 %3, i64 1, i1 false), !tbaa.struct !55
  call void @_ZSt19__iterator_categoryIPKN6open3d7utility8optionalIlEEENSt15iterator_traitsIT_E17iterator_categoryERKS7_(ptr noundef nonnull align 8 dereferenceable(8) %4)
  %9 = call noundef ptr @"_ZSt9__find_ifIPKN6open3d7utility8optionalIlEEN9__gnu_cxx5__ops10_Iter_predIZNKS0_4core17DynamicSizeVector9IsDynamicEvE3$_0EEET_SD_SD_T0_St26random_access_iterator_tag"(ptr noundef %7, ptr noundef %8)
  ret ptr %9
}

; Function Attrs: inlinehint mustprogress ssp uwtable
define internal void @"_ZN9__gnu_cxx5__ops11__pred_iterIZNK6open3d4core17DynamicSizeVector9IsDynamicEvE3$_0EENS0_10_Iter_predIT_EES7_"() #7 {
  %1 = alloca %"struct.__gnu_cxx::__ops::_Iter_pred", align 1
  call void @"_ZN9__gnu_cxx5__ops10_Iter_predIZNK6open3d4core17DynamicSizeVector9IsDynamicEvE3$_0EC2ES5_"(ptr noundef nonnull align 1 dereferenceable(1) %1)
  ret void
}

; Function Attrs: inlinehint mustprogress ssp uwtable
define internal noundef ptr @"_ZSt7find_ifIPKN6open3d7utility8optionalIlEEZNKS0_4core17DynamicSizeVector9IsDynamicEvE3$_0ET_S9_S9_T0_"(ptr noundef %0, ptr noundef %1) #7 {
  %3 = alloca ptr, align 8
  %4 = alloca ptr, align 8
  store ptr %0, ptr %3, align 8, !tbaa !12
  store ptr %1, ptr %4, align 8, !tbaa !12
  %5 = load ptr, ptr %3, align 8, !tbaa !12
  %6 = load ptr, ptr %4, align 8, !tbaa !12
  call void @"_ZN9__gnu_cxx5__ops11__pred_iterIZNK6open3d4core17DynamicSizeVector9IsDynamicEvE3$_0EENS0_10_Iter_predIT_EES7_"()
  %7 = call noundef ptr @"_ZSt9__find_ifIPKN6open3d7utility8optionalIlEEN9__gnu_cxx5__ops10_Iter_predIZNKS0_4core17DynamicSizeVector9IsDynamicEvE3$_0EEET_SD_SD_T0_"(ptr noundef %5, ptr noundef %6)
  ret ptr %7
}

; Function Attrs: inlinehint mustprogress ssp uwtable
define internal noundef zeroext i1 @"_ZSt7none_ofIPKN6open3d7utility8optionalIlEEZNKS0_4core17DynamicSizeVector9IsDynamicEvE3$_0EbT_S9_T0_"(ptr noundef %0, ptr noundef %1) #7 {
  %3 = alloca ptr, align 8
  %4 = alloca ptr, align 8
  store ptr %0, ptr %3, align 8, !tbaa !12
  store ptr %1, ptr %4, align 8, !tbaa !12
  %5 = load ptr, ptr %4, align 8, !tbaa !12
  %6 = load ptr, ptr %3, align 8, !tbaa !12
  %7 = load ptr, ptr %4, align 8, !tbaa !12
  %8 = call noundef ptr @"_ZSt7find_ifIPKN6open3d7utility8optionalIlEEZNKS0_4core17DynamicSizeVector9IsDynamicEvE3$_0ET_S9_S9_T0_"(ptr noundef %6, ptr noundef %7)
  %9 = icmp eq ptr %5, %8
  ret i1 %9
}

; Function Attrs: mustprogress nounwind ssp uwtable
define linkonce_odr noundef i64 @_ZNK6open3d4core15SmallVectorBaseIjE4sizeEv(ptr noundef nonnull align 8 dereferenceable(16) %0) #2 comdat align 2 {
  %2 = alloca ptr, align 8
  store ptr %0, ptr %2, align 8, !tbaa !26
  %3 = load ptr, ptr %2, align 8
  %4 = getelementptr inbounds nuw %"class.open3d::core::SmallVectorBase", ptr %3, i32 0, i32 1
  %5 = load i32, ptr %4, align 8, !tbaa !31
  %6 = zext i32 %5 to i64
  ret i64 %6
}

; Function Attrs: inlinehint mustprogress ssp uwtable
define internal noundef zeroext i1 @"_ZSt6any_ofIPKN6open3d7utility8optionalIlEEZNKS0_4core17DynamicSizeVector9IsDynamicEvE3$_0EbT_S9_T0_"(ptr noundef %0, ptr noundef %1) #7 {
  %3 = alloca ptr, align 8
  %4 = alloca ptr, align 8
  store ptr %0, ptr %3, align 8, !tbaa !12
  store ptr %1, ptr %4, align 8, !tbaa !12
  %5 = load ptr, ptr %3, align 8, !tbaa !12
  %6 = load ptr, ptr %4, align 8, !tbaa !12
  %7 = call noundef zeroext i1 @"_ZSt7none_ofIPKN6open3d7utility8optionalIlEEZNKS0_4core17DynamicSizeVector9IsDynamicEvE3$_0EbT_S9_T0_"(ptr noundef %5, ptr noundef %6)
  %8 = xor i1 %7, true
  ret i1 %8
}

; Function Attrs: mustprogress nounwind ssp uwtable
define linkonce_odr noundef ptr @_ZNK6open3d4core25SmallVectorTemplateCommonINS_7utility8optionalIlEEvE3endEv(ptr noundef nonnull align 8 dereferenceable(16) %0) #2 comdat align 2 {
  %2 = alloca ptr, align 8
  store ptr %0, ptr %2, align 8, !tbaa !24
  %3 = load ptr, ptr %2, align 8
  %4 = call noundef ptr @_ZNK6open3d4core25SmallVectorTemplateCommonINS_7utility8optionalIlEEvE5beginEv(ptr noundef nonnull align 8 dereferenceable(16) %3)
  %5 = call noundef i64 @_ZNK6open3d4core15SmallVectorBaseIjE4sizeEv(ptr noundef nonnull align 8 dereferenceable(16) %3)
  %6 = getelementptr inbounds nuw %"class.open3d::utility::optional", ptr %4, i64 %5
  ret ptr %6
}

; Function Attrs: mustprogress nounwind ssp uwtable
define linkonce_odr noundef ptr @_ZNK6open3d4core25SmallVectorTemplateCommonINS_7utility8optionalIlEEvE5beginEv(ptr noundef nonnull align 8 dereferenceable(16) %0) #2 comdat align 2 {
  %2 = alloca ptr, align 8
  store ptr %0, ptr %2, align 8, !tbaa !24
  %3 = load ptr, ptr %2, align 8
  %4 = getelementptr inbounds nuw %"class.open3d::core::SmallVectorBase", ptr %3, i32 0, i32 0
  %5 = load ptr, ptr %4, align 8, !tbaa !29
  ret ptr %5
}

; Function Attrs: mustprogress ssp uwtable
define noundef zeroext i1 @_ZNK6open3d4core17DynamicSizeVector9IsDynamicEv(ptr noundef nonnull align 8 dereferenceable(80) %0) #0 align 2 {
  %2 = alloca ptr, align 8
  store ptr %0, ptr %2, align 8, !tbaa !4
  %3 = load ptr, ptr %2, align 8
  %4 = call noundef ptr @_ZNK6open3d4core25SmallVectorTemplateCommonINS_7utility8optionalIlEEvE5beginEv(ptr noundef nonnull align 8 dereferenceable(16) %3)
  %5 = call noundef ptr @_ZNK6open3d4core25SmallVectorTemplateCommonINS_7utility8optionalIlEEvE3endEv(ptr noundef nonnull align 8 dereferenceable(16) %3)
  %6 = call noundef zeroext i1 @"_ZSt6any_ofIPKN6open3d7utility8optionalIlEEZNKS0_4core17DynamicSizeVector9IsDynamicEvE3$_0EbT_S9_T0_"(ptr noundef %4, ptr noundef %5)
  ret i1 %6
}