; Function Attrs: mustprogress nofree norecurse nosync nounwind ssp willreturn memory(read, inaccessiblemem: none) uwtable
define noundef zeroext i1 @_ZNK6open3d4core17DynamicSizeVector9IsDynamicEv(ptr noundef nonnull readonly align 8 captures(none) dereferenceable(80) %0) local_unnamed_addr #24 align 2 {
  %2 = load ptr, ptr %0, align 8, !tbaa !11
  %3 = getelementptr inbounds nuw i8, ptr %0, i64 8
  %4 = load i32, ptr %3, align 8, !tbaa !15
  %5 = zext i32 %4 to i64
  %.idx1 = shl nuw nsw i64 %5, 4
  %6 = getelementptr inbounds nuw i8, ptr %2, i64 %.idx1
  %.not = icmp ult i32 %4, 4
  br i1 %.not, label %._crit_edge.i.i.i.i.i, label %.lr.ph.preheader.i.i.i.i.i

.lr.ph.preheader.i.i.i.i.i:                       ; preds = %1
  %7 = lshr i64 %5, 2
  %8 = and i64 %.idx1, 68719476672
  %scevgep.i.i.i.i.i = getelementptr i8, ptr %2, i64 %8
  br label %.lr.ph.i.i.i.i.i

.lr.ph.i.i.i.i.i:                                 ; preds = %19, %.lr.ph.preheader.i.i.i.i.i
  %.044.i.i.i.i.i = phi i64 [ %21, %19 ], [ %7, %.lr.ph.preheader.i.i.i.i.i ]
  %.02943.i.i.i.i.i = phi ptr [ %20, %19 ], [ %2, %.lr.ph.preheader.i.i.i.i.i ]
  %.029.val.i.i.i.i.i = load i8, ptr %.02943.i.i.i.i.i, align 8, !tbaa !16, !range !20, !noundef !21
  %9 = trunc nuw i8 %.029.val.i.i.i.i.i to i1
  br i1 %9, label %10, label %"_ZSt6any_ofIPKN6open3d7utility8optionalIlEEZNKS0_4core17DynamicSizeVector9IsDynamicEvE3$_0EbT_S9_T0_.exit"

10:                                               ; preds = %.lr.ph.i.i.i.i.i
  %11 = getelementptr inbounds nuw i8, ptr %.02943.i.i.i.i.i, i64 16
  %.val.i.i.i.i.i = load i8, ptr %11, align 8, !tbaa !16, !range !20, !noundef !21
  %12 = trunc nuw i8 %.val.i.i.i.i.i to i1
  br i1 %12, label %13, label %"_ZSt6any_ofIPKN6open3d7utility8optionalIlEEZNKS0_4core17DynamicSizeVector9IsDynamicEvE3$_0EbT_S9_T0_.exit.loopexit.split.loop.exit"

13:                                               ; preds = %10
  %14 = getelementptr inbounds nuw i8, ptr %.02943.i.i.i.i.i, i64 32
  %.val30.i.i.i.i.i = load i8, ptr %14, align 8, !tbaa !16, !range !20, !noundef !21
  %15 = trunc nuw i8 %.val30.i.i.i.i.i to i1
  br i1 %15, label %16, label %"_ZSt6any_ofIPKN6open3d7utility8optionalIlEEZNKS0_4core17DynamicSizeVector9IsDynamicEvE3$_0EbT_S9_T0_.exit.loopexit.split.loop.exit14"

16:                                               ; preds = %13
  %17 = getelementptr inbounds nuw i8, ptr %.02943.i.i.i.i.i, i64 48
  %.val31.i.i.i.i.i = load i8, ptr %17, align 8, !tbaa !16, !range !20, !noundef !21
  %18 = trunc nuw i8 %.val31.i.i.i.i.i to i1
  br i1 %18, label %19, label %"_ZSt6any_ofIPKN6open3d7utility8optionalIlEEZNKS0_4core17DynamicSizeVector9IsDynamicEvE3$_0EbT_S9_T0_.exit.loopexit.split.loop.exit16"

19:                                               ; preds = %16
  %20 = getelementptr inbounds nuw i8, ptr %.02943.i.i.i.i.i, i64 64
  %21 = add nsw i64 %.044.i.i.i.i.i, -1
  %22 = icmp sgt i64 %.044.i.i.i.i.i, 1
  br i1 %22, label %.lr.ph.i.i.i.i.i, label %._crit_edge.loopexit.i.i.i.i.i, !llvm.loop !628

._crit_edge.loopexit.i.i.i.i.i:                   ; preds = %19
  %23 = and i32 %4, 3
  br label %._crit_edge.i.i.i.i.i

._crit_edge.i.i.i.i.i:                            ; preds = %._crit_edge.loopexit.i.i.i.i.i, %1
  %.pre-phi50.i.i.i.i.i = phi i32 [ %23, %._crit_edge.loopexit.i.i.i.i.i ], [ %4, %1 ]
  %.029.lcssa.i.i.i.i.i = phi ptr [ %scevgep.i.i.i.i.i, %._crit_edge.loopexit.i.i.i.i.i ], [ %2, %1 ]
  switch i32 %.pre-phi50.i.i.i.i.i, label %._crit_edge.i.i.i.i.i.unreachabledefault [
    i32 3, label %24
    i32 2, label %28
    i32 1, label %32
    i32 0, label %34
  ]

24:                                               ; preds = %._crit_edge.i.i.i.i.i
  %.029.val32.i.i.i.i.i = load i8, ptr %.029.lcssa.i.i.i.i.i, align 8, !tbaa !16, !range !20, !noundef !21
  %25 = trunc nuw i8 %.029.val32.i.i.i.i.i to i1
  br i1 %25, label %26, label %"_ZSt6any_ofIPKN6open3d7utility8optionalIlEEZNKS0_4core17DynamicSizeVector9IsDynamicEvE3$_0EbT_S9_T0_.exit"

26:                                               ; preds = %24
  %27 = getelementptr inbounds nuw i8, ptr %.029.lcssa.i.i.i.i.i, i64 16
  br label %28

28:                                               ; preds = %._crit_edge.i.i.i.i.i, %26
  %.1.i.i.i.i.i = phi ptr [ %.029.lcssa.i.i.i.i.i, %._crit_edge.i.i.i.i.i ], [ %27, %26 ]
  %.1.val.i.i.i.i.i = load i8, ptr %.1.i.i.i.i.i, align 8, !tbaa !16, !range !20, !noundef !21
  %29 = trunc nuw i8 %.1.val.i.i.i.i.i to i1
  br i1 %29, label %30, label %"_ZSt6any_ofIPKN6open3d7utility8optionalIlEEZNKS0_4core17DynamicSizeVector9IsDynamicEvE3$_0EbT_S9_T0_.exit"

30:                                               ; preds = %28
  %31 = getelementptr inbounds nuw i8, ptr %.1.i.i.i.i.i, i64 16
  br label %32

32:                                               ; preds = %._crit_edge.i.i.i.i.i, %30
  %.2.i.i.i.i.i = phi ptr [ %.029.lcssa.i.i.i.i.i, %._crit_edge.i.i.i.i.i ], [ %31, %30 ]
  %.2.val.i.i.i.i.i = load i8, ptr %.2.i.i.i.i.i, align 8, !tbaa !16, !range !20, !noundef !21
  %33 = trunc nuw i8 %.2.val.i.i.i.i.i to i1
  br i1 %33, label %34, label %"_ZSt6any_ofIPKN6open3d7utility8optionalIlEEZNKS0_4core17DynamicSizeVector9IsDynamicEvE3$_0EbT_S9_T0_.exit"

._crit_edge.i.i.i.i.i.unreachabledefault:         ; preds = %._crit_edge.i.i.i.i.i
  unreachable

34:                                               ; preds = %._crit_edge.i.i.i.i.i, %32
  br label %"_ZSt6any_ofIPKN6open3d7utility8optionalIlEEZNKS0_4core17DynamicSizeVector9IsDynamicEvE3$_0EbT_S9_T0_.exit"

"_ZSt6any_ofIPKN6open3d7utility8optionalIlEEZNKS0_4core17DynamicSizeVector9IsDynamicEvE3$_0EbT_S9_T0_.exit.loopexit.split.loop.exit": ; preds = %10
  %35 = getelementptr inbounds nuw i8, ptr %.02943.i.i.i.i.i, i64 16
  br label %"_ZSt6any_ofIPKN6open3d7utility8optionalIlEEZNKS0_4core17DynamicSizeVector9IsDynamicEvE3$_0EbT_S9_T0_.exit"

"_ZSt6any_ofIPKN6open3d7utility8optionalIlEEZNKS0_4core17DynamicSizeVector9IsDynamicEvE3$_0EbT_S9_T0_.exit.loopexit.split.loop.exit14": ; preds = %13
  %36 = getelementptr inbounds nuw i8, ptr %.02943.i.i.i.i.i, i64 32
  br label %"_ZSt6any_ofIPKN6open3d7utility8optionalIlEEZNKS0_4core17DynamicSizeVector9IsDynamicEvE3$_0EbT_S9_T0_.exit"

"_ZSt6any_ofIPKN6open3d7utility8optionalIlEEZNKS0_4core17DynamicSizeVector9IsDynamicEvE3$_0EbT_S9_T0_.exit.loopexit.split.loop.exit16": ; preds = %16
  %37 = getelementptr inbounds nuw i8, ptr %.02943.i.i.i.i.i, i64 48
  br label %"_ZSt6any_ofIPKN6open3d7utility8optionalIlEEZNKS0_4core17DynamicSizeVector9IsDynamicEvE3$_0EbT_S9_T0_.exit"

"_ZSt6any_ofIPKN6open3d7utility8optionalIlEEZNKS0_4core17DynamicSizeVector9IsDynamicEvE3$_0EbT_S9_T0_.exit": ; preds = %.lr.ph.i.i.i.i.i, %"_ZSt6any_ofIPKN6open3d7utility8optionalIlEEZNKS0_4core17DynamicSizeVector9IsDynamicEvE3$_0EbT_S9_T0_.exit.loopexit.split.loop.exit", %"_ZSt6any_ofIPKN6open3d7utility8optionalIlEEZNKS0_4core17DynamicSizeVector9IsDynamicEvE3$_0EbT_S9_T0_.exit.loopexit.split.loop.exit14", %"_ZSt6any_ofIPKN6open3d7utility8optionalIlEEZNKS0_4core17DynamicSizeVector9IsDynamicEvE3$_0EbT_S9_T0_.exit.loopexit.split.loop.exit16", %24, %28, %32, %34
  %.028.i.i.i.i.i = phi ptr [ %6, %34 ], [ %.029.lcssa.i.i.i.i.i, %24 ], [ %.1.i.i.i.i.i, %28 ], [ %.2.i.i.i.i.i, %32 ], [ %35, %"_ZSt6any_ofIPKN6open3d7utility8optionalIlEEZNKS0_4core17DynamicSizeVector9IsDynamicEvE3$_0EbT_S9_T0_.exit.loopexit.split.loop.exit" ], [ %36, %"_ZSt6any_ofIPKN6open3d7utility8optionalIlEEZNKS0_4core17DynamicSizeVector9IsDynamicEvE3$_0EbT_S9_T0_.exit.loopexit.split.loop.exit14" ], [ %37, %"_ZSt6any_ofIPKN6open3d7utility8optionalIlEEZNKS0_4core17DynamicSizeVector9IsDynamicEvE3$_0EbT_S9_T0_.exit.loopexit.split.loop.exit16" ], [ %.02943.i.i.i.i.i, %.lr.ph.i.i.i.i.i ]
  %38 = icmp ne ptr %6, %.028.i.i.i.i.i
  ret i1 %38
}